target datalayout = "e-m:e-p270:32:32-p271:32:32-p272:64:64-i64:64-i128:128-f80:128-n8:16:32:64-S128"
target triple = "x86_64-pc-linux-gnu"

%struct.GISTBuildBuffers = type { ptr, ptr, i64, ptr, i32, i32, ptr, ptr, i32, i32, ptr, i32, ptr, i32, i32, i32 }
%struct.GISTNodeBuffer = type { i32, i32, i32, ptr, i8, i8, i32 }
%struct.GISTNodeBufferPage = type { i32, i32, [0 x i8] }
%struct.IndexTupleData = type { %struct.ItemPointerData, i16 }
%struct.ItemPointerData = type { %struct.BlockIdData, i16 }
%struct.BlockIdData = type { i16, i16 }

@.str.1 = private unnamed_addr constant [46 x i8] c"could not seek to block %ld in temporary file\00", align 1
@.str.2 = private unnamed_addr constant [19 x i8] c"gistbuildbuffers.c\00", align 1
@__func__.ReadTempFileBlock = private unnamed_addr constant [18 x i8] c"ReadTempFileBlock\00", align 1

; Function Attrs: inlinehint nounwind uwtable
define internal i64 @IndexTupleSize(ptr noundef %0) #3 {
  %2 = alloca ptr, align 8
  store ptr %0, ptr %2, align 8
  %3 = load ptr, ptr %2, align 8
  %4 = getelementptr inbounds nuw %struct.IndexTupleData, ptr %3, i32 0, i32 1
  %5 = load i16, ptr %4, align 2
  %6 = zext i16 %5 to i32
  %7 = and i32 %6, 8191
  %8 = sext i32 %7 to i64
  ret i64 %8
}

; Function Attrs: nounwind uwtable
define internal void @gistBuffersReleaseBlock(ptr noundef %0, i64 noundef %1) #0 {
  %3 = alloca ptr, align 8
  %4 = alloca i64, align 8
  %5 = alloca i32, align 4
  store ptr %0, ptr %3, align 8
  store i64 %1, ptr %4, align 8
  call void @llvm.lifetime.start.p0(i64 4, ptr %5) #7
  %6 = load ptr, ptr %3, align 8
  %7 = getelementptr inbounds nuw %struct.GISTBuildBuffers, ptr %6, i32 0, i32 4
  %8 = load i32, ptr %7, align 8
  %9 = load ptr, ptr %3, align 8
  %10 = getelementptr inbounds nuw %struct.GISTBuildBuffers, ptr %9, i32 0, i32 5
  %11 = load i32, ptr %10, align 4
  %12 = icmp sge i32 %8, %11
  br i1 %12, label %13, label %29

13:                                               ; preds = %2
  %14 = load ptr, ptr %3, align 8
  %15 = getelementptr inbounds nuw %struct.GISTBuildBuffers, ptr %14, i32 0, i32 5
  %16 = load i32, ptr %15, align 4
  %17 = mul i32 %16, 2
  store i32 %17, ptr %15, align 4
  %18 = load ptr, ptr %3, align 8
  %19 = getelementptr inbounds nuw %struct.GISTBuildBuffers, ptr %18, i32 0, i32 3
  %20 = load ptr, ptr %19, align 8
  %21 = load ptr, ptr %3, align 8
  %22 = getelementptr inbounds nuw %struct.GISTBuildBuffers, ptr %21, i32 0, i32 5
  %23 = load i32, ptr %22, align 4
  %24 = sext i32 %23 to i64
  %25 = mul i64 %24, 8
  %26 = call ptr @repalloc(ptr noundef %20, i64 noundef %25)
  %27 = load ptr, ptr %3, align 8
  %28 = getelementptr inbounds nuw %struct.GISTBuildBuffers, ptr %27, i32 0, i32 3
  store ptr %26, ptr %28, align 8
  br label %29

29:                                               ; preds = %13, %2
  %30 = load ptr, ptr %3, align 8
  %31 = getelementptr inbounds nuw %struct.GISTBuildBuffers, ptr %30, i32 0, i32 4
  %32 = load i32, ptr %31, align 8
  %33 = add i32 %32, 1
  store i32 %33, ptr %31, align 8
  store i32 %32, ptr %5, align 4
  %34 = load i64, ptr %4, align 8
  %35 = load ptr, ptr %3, align 8
  %36 = getelementptr inbounds nuw %struct.GISTBuildBuffers, ptr %35, i32 0, i32 3
  %37 = load ptr, ptr %36, align 8
  %38 = load i32, ptr %5, align 4
  %39 = sext i32 %38 to i64
  %40 = getelementptr inbounds i64, ptr %37, i64 %39
  store i64 %34, ptr %40, align 8
  call void @llvm.lifetime.end.p0(i64 4, ptr %5) #7
  ret void
}

; Function Attrs: nounwind uwtable
define internal void @ReadTempFileBlock(ptr noundef %0, i64 noundef %1, ptr noundef %2) #0 {
  %4 = alloca ptr, align 8
  %5 = alloca i64, align 8
  %6 = alloca ptr, align 8
  store ptr %0, ptr %4, align 8
  store i64 %1, ptr %5, align 8
  store ptr %2, ptr %6, align 8
  %7 = load ptr, ptr %4, align 8
  %8 = load i64, ptr %5, align 8
  %9 = call i32 @BufFileSeekBlock(ptr noundef %7, i64 noundef %8)
  %10 = icmp ne i32 %9, 0
  br i1 %10, label %11, label %22

11:                                               ; preds = %3
  br label %12

12:                                               ; preds = %11
  br i1 true, label %13, label %15

13:                                               ; preds = %12
  %14 = call zeroext i1 @errstart_cold(i32 noundef 21, ptr noundef null) #8
  br i1 %14, label %17, label %20

15:                                               ; preds = %12
  %16 = call zeroext i1 @errstart(i32 noundef 21, ptr noundef null)
  br i1 %16, label %17, label %20

17:                                               ; preds = %15, %13
  %18 = load i64, ptr %5, align 8
  %19 = call i32 (ptr, ...) @errmsg_internal(ptr noundef @.str.1, i64 noundef %18)
  call void @errfinish(ptr noundef @.str.2, i32 noundef 753, ptr noundef @__func__.ReadTempFileBlock)
  br label %20

20:                                               ; preds = %17, %15, %13
  unreachable

21:                                               ; No predecessors!
  br label %22

22:                                               ; preds = %21, %3
  %23 = load ptr, ptr %4, align 8
  %24 = load ptr, ptr %6, align 8
  call void @BufFileReadExact(ptr noundef %23, ptr noundef %24, i64 noundef 8192)
  ret void
}

; Function Attrs: nounwind uwtable
define internal void @gistGetItupFromPage(ptr noundef %0, ptr noundef %1) #0 {
  %3 = alloca ptr, align 8
  %4 = alloca ptr, align 8
  %5 = alloca ptr, align 8
  %6 = alloca i64, align 8
  store ptr %0, ptr %3, align 8
  store ptr %1, ptr %4, align 8
  call void @llvm.lifetime.start.p0(i64 8, ptr %5) #7
  call void @llvm.lifetime.start.p0(i64 8, ptr %6) #7
  %7 = load ptr, ptr %3, align 8
  %8 = getelementptr inbounds nuw i8, ptr %7, i64 8
  %9 = load ptr, ptr %3, align 8
  %10 = getelementptr inbounds nuw %struct.GISTNodeBufferPage, ptr %9, i32 0, i32 1
  %11 = load i32, ptr %10, align 4
  %12 = zext i32 %11 to i64
  %13 = getelementptr inbounds nuw i8, ptr %8, i64 %12
  store ptr %13, ptr %5, align 8
  %14 = load ptr, ptr %5, align 8
  %15 = call i64 @IndexTupleSize(ptr noundef %14)
  store i64 %15, ptr %6, align 8
  %16 = load i64, ptr %6, align 8
  %17 = call ptr @palloc(i64 noundef %16)
  %18 = load ptr, ptr %4, align 8
  store ptr %17, ptr %18, align 8
  %19 = load ptr, ptr %4, align 8
  %20 = load ptr, ptr %19, align 8
  %21 = load ptr, ptr %5, align 8
  %22 = load i64, ptr %6, align 8
  call void @llvm.memcpy.p0.p0.i64(ptr align 2 %20, ptr align 2 %21, i64 %22, i1 false)
  %23 = load i64, ptr %6, align 8
  %24 = add i64 %23, 7
  %25 = and i64 %24, -8
  %26 = load ptr, ptr %3, align 8
  %27 = getelementptr inbounds nuw %struct.GISTNodeBufferPage, ptr %26, i32 0, i32 1
  %28 = load i32, ptr %27, align 4
  %29 = zext i32 %28 to i64
  %30 = add i64 %29, %25
  %31 = trunc i64 %30 to i32
  store i32 %31, ptr %27, align 4
  call void @llvm.lifetime.end.p0(i64 8, ptr %6) #7
  call void @llvm.lifetime.end.p0(i64 8, ptr %5) #7
  ret void
}

; Function Attrs: nounwind uwtable
define dso_local zeroext i1 @gistPopItupFromNodeBuffer(ptr noundef %0, ptr noundef %1, ptr noundef %2) #0 {
  %4 = alloca i1, align 1
  %5 = alloca ptr, align 8
  %6 = alloca ptr, align 8
  %7 = alloca ptr, align 8
  %8 = alloca i32, align 4
  store ptr %0, ptr %5, align 8
  store ptr %1, ptr %6, align 8
  store ptr %2, ptr %7, align 8
  %9 = load ptr, ptr %6, align 8
  %10 = getelementptr inbounds nuw %struct.GISTNodeBuffer, ptr %9, i32 0, i32 1
  %11 = load i32, ptr %10, align 4
  %12 = icmp sle i32 %11, 0
  br i1 %12, label %13, label %14

13:                                               ; preds = %3
  store i1 false, ptr %4, align 1
  br label %66

14:                                               ; preds = %3
  %15 = load ptr, ptr %6, align 8
  %16 = getelementptr inbounds nuw %struct.GISTNodeBuffer, ptr %15, i32 0, i32 3
  %17 = load ptr, ptr %16, align 8
  %18 = icmp ne ptr %17, null
  br i1 %18, label %22, label %19

19:                                               ; preds = %14
  %20 = load ptr, ptr %5, align 8
  %21 = load ptr, ptr %6, align 8
  call void @gistLoadNodeBuffer(ptr noundef %20, ptr noundef %21)
  br label %22

22:                                               ; preds = %19, %14
  %23 = load ptr, ptr %6, align 8
  %24 = getelementptr inbounds nuw %struct.GISTNodeBuffer, ptr %23, i32 0, i32 3
  %25 = load ptr, ptr %24, align 8
  %26 = load ptr, ptr %7, align 8
  call void @gistGetItupFromPage(ptr noundef %25, ptr noundef %26)
  %27 = load ptr, ptr %6, align 8
  %28 = getelementptr inbounds nuw %struct.GISTNodeBuffer, ptr %27, i32 0, i32 3
  %29 = load ptr, ptr %28, align 8
  %30 = getelementptr inbounds nuw %struct.GISTNodeBufferPage, ptr %29, i32 0, i32 1
  %31 = load i32, ptr %30, align 4
  %32 = zext i32 %31 to i64
  %33 = icmp eq i64 %32, 8184
  br i1 %33, label %34, label %65

34:                                               ; preds = %22
  call void @llvm.lifetime.start.p0(i64 4, ptr %8) #7
  %35 = load ptr, ptr %6, align 8
  %36 = getelementptr inbounds nuw %struct.GISTNodeBuffer, ptr %35, i32 0, i32 1
  %37 = load i32, ptr %36, align 4
  %38 = add i32 %37, -1
  store i32 %38, ptr %36, align 4
  %39 = load ptr, ptr %6, align 8
  %40 = getelementptr inbounds nuw %struct.GISTNodeBuffer, ptr %39, i32 0, i32 3
  %41 = load ptr, ptr %40, align 8
  %42 = getelementptr inbounds nuw %struct.GISTNodeBufferPage, ptr %41, i32 0, i32 0
  %43 = load i32, ptr %42, align 4
  store i32 %43, ptr %8, align 4
  %44 = load i32, ptr %8, align 4
  %45 = icmp ne i32 %44, -1
  br i1 %45, label %46, label %58

46:                                               ; preds = %34
  %47 = load ptr, ptr %5, align 8
  %48 = getelementptr inbounds nuw %struct.GISTBuildBuffers, ptr %47, i32 0, i32 1
  %49 = load ptr, ptr %48, align 8
  %50 = load i32, ptr %8, align 4
  %51 = zext i32 %50 to i64
  %52 = load ptr, ptr %6, align 8
  %53 = getelementptr inbounds nuw %struct.GISTNodeBuffer, ptr %52, i32 0, i32 3
  %54 = load ptr, ptr %53, align 8
  call void @ReadTempFileBlock(ptr noundef %49, i64 noundef %51, ptr noundef %54)
  %55 = load ptr, ptr %5, align 8
  %56 = load i32, ptr %8, align 4
  %57 = zext i32 %56 to i64
  call void @gistBuffersReleaseBlock(ptr noundef %55, i64 noundef %57)
  br label %64

58:                                               ; preds = %34
  %59 = load ptr, ptr %6, align 8
  %60 = getelementptr inbounds nuw %struct.GISTNodeBuffer, ptr %59, i32 0, i32 3
  %61 = load ptr, ptr %60, align 8
  call void @pfree(ptr noundef %61)
  %62 = load ptr, ptr %6, align 8
  %63 = getelementptr inbounds nuw %struct.GISTNodeBuffer, ptr %62, i32 0, i32 3
  store ptr null, ptr %63, align 8
  br label %64

64:                                               ; preds = %58, %46
  call void @llvm.lifetime.end.p0(i64 4, ptr %8) #7
  br label %65

65:                                               ; preds = %64, %22
  store i1 true, ptr %4, align 1
  br label %66

66:                                               ; preds = %65, %13
  %67 = load i1, ptr %4, align 1
  ret i1 %67
}