; Function Attrs: nounwind uwtable
define dso_local noundef zeroext i1 @gistPopItupFromNodeBuffer(ptr noundef captures(none) %0, ptr noundef %1, ptr noundef writeonly captures(none) %2) local_unnamed_addr #0 {
  %4 = getelementptr inbounds nuw i8, ptr %1, i64 4
  %5 = load i32, ptr %4, align 4
  %6 = icmp sgt i32 %5, 0
  br i1 %6, label %7, label %59

7:                                                ; preds = %3
  %8 = getelementptr inbounds nuw i8, ptr %1, i64 16
  %9 = load ptr, ptr %8, align 8
  %.not = icmp eq ptr %9, null
  br i1 %.not, label %10, label %11

10:                                               ; preds = %7
  tail call fastcc void @gistLoadNodeBuffer(ptr noundef %0, ptr noundef nonnull %1)
  %.pre = load ptr, ptr %8, align 8
  br label %11

11:                                               ; preds = %10, %7
  %12 = phi ptr [ %.pre, %10 ], [ %9, %7 ]
  %13 = getelementptr inbounds nuw i8, ptr %12, i64 8
  %14 = getelementptr inbounds nuw i8, ptr %12, i64 4
  %15 = load i32, ptr %14, align 4
  %16 = zext i32 %15 to i64
  %17 = getelementptr inbounds nuw i8, ptr %13, i64 %16
  %18 = getelementptr i8, ptr %17, i64 6
  %.val.i = load i16, ptr %18, align 2
  %19 = and i16 %.val.i, 8191
  %20 = zext nneg i16 %19 to i64
  %21 = tail call ptr @palloc(i64 noundef %20) #6
  store ptr %21, ptr %2, align 8
  tail call void @llvm.memcpy.p0.p0.i64(ptr align 2 %21, ptr nonnull align 2 %17, i64 %20, i1 false)
  %22 = load i32, ptr %14, align 4
  %narrow.i = add nuw nsw i16 %19, 7
  %23 = and i16 %narrow.i, 16376
  %24 = zext nneg i16 %23 to i32
  %25 = add i32 %22, %24
  store i32 %25, ptr %14, align 4
  %26 = load ptr, ptr %8, align 8
  %27 = getelementptr inbounds nuw i8, ptr %26, i64 4
  %28 = load i32, ptr %27, align 4
  %29 = icmp eq i32 %28, 8184
  br i1 %29, label %30, label %59

30:                                               ; preds = %11
  %31 = load i32, ptr %4, align 4
  %32 = add i32 %31, -1
  store i32 %32, ptr %4, align 4
  %33 = load i32, ptr %26, align 4
  %.not18 = icmp eq i32 %33, -1
  br i1 %.not18, label %58, label %34

34:                                               ; preds = %30
  %35 = getelementptr inbounds nuw i8, ptr %0, i64 8
  %36 = load ptr, ptr %35, align 8
  %37 = zext i32 %33 to i64
  %38 = tail call i32 @BufFileSeekBlock(ptr noundef %36, i64 noundef range(i64 0, 4294967296) %37) #6
  %.not.i = icmp eq i32 %38, 0
  br i1 %.not.i, label %ReadTempFileBlock.exit, label %39

39:                                               ; preds = %34
  %40 = tail call zeroext i1 @errstart_cold(i32 noundef 21, ptr noundef null) #7
  tail call void @llvm.assume(i1 %40)
  %41 = tail call i32 (ptr, ...) @errmsg_internal(ptr noundef nonnull @.str.1, i64 noundef range(i64 0, 4294967296) %37) #6
  tail call void @errfinish(ptr noundef nonnull @.str.2, i32 noundef 753, ptr noundef nonnull @__func__.ReadTempFileBlock) #6
  unreachable

ReadTempFileBlock.exit:                           ; preds = %34
  tail call void @BufFileReadExact(ptr noundef %36, ptr noundef nonnull %26, i64 noundef 8192) #6
  %42 = getelementptr inbounds nuw i8, ptr %0, i64 32
  %43 = load i32, ptr %42, align 8
  %44 = getelementptr inbounds nuw i8, ptr %0, i64 36
  %45 = load i32, ptr %44, align 4
  %.not.i19 = icmp slt i32 %43, %45
  br i1 %.not.i19, label %._crit_edge.i, label %46

._crit_edge.i:                                    ; preds = %ReadTempFileBlock.exit
  %.phi.trans.insert.i = getelementptr inbounds nuw i8, ptr %0, i64 24
  %.pre9.i = load ptr, ptr %.phi.trans.insert.i, align 8
  br label %gistBuffersReleaseBlock.exit

46:                                               ; preds = %ReadTempFileBlock.exit
  %47 = shl i32 %45, 1
  store i32 %47, ptr %44, align 4
  %48 = getelementptr inbounds nuw i8, ptr %0, i64 24
  %49 = load ptr, ptr %48, align 8
  %50 = sext i32 %47 to i64
  %51 = shl nsw i64 %50, 3
  %52 = tail call ptr @repalloc(ptr noundef %49, i64 noundef %51) #6
  store ptr %52, ptr %48, align 8
  %.pre.i = load i32, ptr %42, align 8
  br label %gistBuffersReleaseBlock.exit

gistBuffersReleaseBlock.exit:                     ; preds = %._crit_edge.i, %46
  %53 = phi ptr [ %52, %46 ], [ %.pre9.i, %._crit_edge.i ]
  %54 = phi i32 [ %.pre.i, %46 ], [ %43, %._crit_edge.i ]
  %55 = add i32 %54, 1
  store i32 %55, ptr %42, align 8
  %56 = sext i32 %54 to i64
  %57 = getelementptr inbounds i64, ptr %53, i64 %56
  store i64 %37, ptr %57, align 8
  br label %59

58:                                               ; preds = %30
  tail call void @pfree(ptr noundef nonnull %26) #6
  store ptr null, ptr %8, align 8
  br label %59

59:                                               ; preds = %11, %58, %gistBuffersReleaseBlock.exit, %3
  ret i1 %6
}